; Function Attrs: noreturn nounwind uwtable
define internal fastcc void @usage(ptr noundef %0, i32 noundef range(i32 0, 2) %1) unnamed_addr #5 {
  %3 = load ptr, ptr @progname, align 8
  %4 = tail call i32 (ptr, ptr, ...) @pg_fprintf(ptr noundef %0, ptr noundef nonnull @.str.29, ptr noundef %3, ptr noundef %3, ptr noundef nonnull @.str.30) #26
  %5 = icmp eq i32 %1, 0
  br i1 %5, label %6, label %close_file.exit

6:                                                ; preds = %2
  %7 = tail call i32 @ferror(ptr noundef %0) #26
  %.not.i = icmp eq i32 %7, 0
  br i1 %.not.i, label %8, label %.thread15.i

8:                                                ; preds = %6
  %9 = tail call i32 @fclose(ptr noundef %0)
  %.not10.i = icmp eq i32 %9, 0
  br i1 %.not10.i, label %close_file.exit, label %10

10:                                               ; preds = %8
  %11 = tail call ptr @__errno_location() #28
  %12 = load i32, ptr %11, align 4
  %13 = tail call ptr @pg_strerror(i32 noundef %12) #26
  %.not11.i = icmp eq ptr %13, null
  br i1 %.not11.i, label %close_file.exit, label %.thread15.i

.thread15.i:                                      ; preds = %10, %6
  %14 = phi ptr [ %13, %10 ], [ @.str.24, %6 ]
  %15 = load ptr, ptr @stderr, align 8
  %16 = load ptr, ptr @progname, align 8
  %17 = tail call i32 (ptr, ptr, ...) @pg_fprintf(ptr noundef %15, ptr noundef nonnull @.str.25, ptr noundef %16, ptr noundef nonnull @.str.26, ptr noundef nonnull @.str.26, ptr noundef nonnull @.str.26, ptr noundef nonnull @.str.26, ptr noundef nonnull %14) #26
  tail call void @exit(i32 noundef 1) #29
  unreachable

close_file.exit:                                  ; preds = %10, %8, %2
  tail call void @exit(i32 noundef %1) #33
  unreachable
}